target datalayout = "e-m:e-p270:32:32-p271:32:32-p272:64:64-i64:64-i128:128-f80:128-n8:16:32:64-S128"
target triple = "x86_64-pc-linux-gnu"

%struct.ARKodeMemRec = type { ptr, double, ptr, i32, i32, double, double, ptr, i32, double, ptr, i32, i32, ptr, ptr, i32, ptr, ptr, i32, ptr, ptr, ptr, ptr, ptr, ptr, ptr, ptr, ptr, ptr, ptr, ptr, ptr, ptr, ptr, i32, ptr, ptr, i32, ptr, i32, ptr, ptr, ptr, ptr, ptr, ptr, ptr, ptr, ptr, ptr, ptr, ptr, ptr, ptr, ptr, ptr, ptr, ptr, ptr, ptr, ptr, ptr, ptr, ptr, ptr, ptr, i32, ptr, ptr, ptr, ptr, ptr, ptr, ptr, i32, ptr, ptr, ptr, i32, ptr, ptr, ptr, ptr, ptr, ptr, ptr, i32, i32, i32, i32, double, double, double, double, double, double, double, double, double, double, i32, ptr, i64, i32, i32, i32, i32, i64, i64, i32, i64, i64, i64, i64, i64, i64, i64, double, double, double, double, double, i32, double, double, i32, i32, i32, i32, i32, i32, i32, i32, ptr, i32, ptr, ptr, ptr, ptr, i32, i32, i32 }

; Function Attrs: nounwind uwtable
define i32 @arkAllocVec(ptr noundef %0, ptr noundef %1, ptr noundef %2) #0 {
  %4 = alloca i32, align 4
  %5 = alloca ptr, align 8
  %6 = alloca ptr, align 8
  %7 = alloca ptr, align 8
  store ptr %0, ptr %5, align 8, !tbaa !11
  store ptr %1, ptr %6, align 8, !tbaa !7
  store ptr %2, ptr %7, align 8, !tbaa !89
  %8 = load ptr, ptr %7, align 8, !tbaa !89
  %9 = load ptr, ptr %8, align 8, !tbaa !7
  %10 = icmp eq ptr %9, null
  br i1 %10, label %11, label %36

11:                                               ; preds = %3
  %12 = load ptr, ptr %6, align 8, !tbaa !7
  %13 = call ptr @N_VClone(ptr noundef %12)
  %14 = load ptr, ptr %7, align 8, !tbaa !89
  store ptr %13, ptr %14, align 8, !tbaa !7
  %15 = load ptr, ptr %7, align 8, !tbaa !89
  %16 = load ptr, ptr %15, align 8, !tbaa !7
  %17 = icmp eq ptr %16, null
  br i1 %17, label %18, label %20

18:                                               ; preds = %11
  %19 = load ptr, ptr %5, align 8, !tbaa !11
  call void @arkFreeVectors(ptr noundef %19)
  store i32 0, ptr %4, align 4
  br label %37

20:                                               ; preds = %11
  %21 = load ptr, ptr %5, align 8, !tbaa !11
  %22 = getelementptr inbounds nuw %struct.ARKodeMemRec, ptr %21, i32 0, i32 113
  %23 = load i64, ptr %22, align 8, !tbaa !36
  %24 = load ptr, ptr %5, align 8, !tbaa !11
  %25 = getelementptr inbounds nuw %struct.ARKodeMemRec, ptr %24, i32 0, i32 115
  %26 = load i64, ptr %25, align 8, !tbaa !91
  %27 = add nsw i64 %26, %23
  store i64 %27, ptr %25, align 8, !tbaa !91
  %28 = load ptr, ptr %5, align 8, !tbaa !11
  %29 = getelementptr inbounds nuw %struct.ARKodeMemRec, ptr %28, i32 0, i32 114
  %30 = load i64, ptr %29, align 8, !tbaa !37
  %31 = load ptr, ptr %5, align 8, !tbaa !11
  %32 = getelementptr inbounds nuw %struct.ARKodeMemRec, ptr %31, i32 0, i32 116
  %33 = load i64, ptr %32, align 8, !tbaa !92
  %34 = add nsw i64 %33, %30
  store i64 %34, ptr %32, align 8, !tbaa !92
  br label %35

35:                                               ; preds = %20
  br label %36

36:                                               ; preds = %35, %3
  store i32 1, ptr %4, align 4
  br label %37

37:                                               ; preds = %36, %18
  %38 = load i32, ptr %4, align 4
  ret i32 %38
}

; Function Attrs: nounwind uwtable
define i32 @arkAllocVectors(ptr noundef %0, ptr noundef %1) #0 {
  %3 = alloca i32, align 4
  %4 = alloca ptr, align 8
  %5 = alloca ptr, align 8
  store ptr %0, ptr %4, align 8, !tbaa !11
  store ptr %1, ptr %5, align 8, !tbaa !7
  %6 = load ptr, ptr %4, align 8, !tbaa !11
  %7 = load ptr, ptr %5, align 8, !tbaa !7
  %8 = load ptr, ptr %4, align 8, !tbaa !11
  %9 = getelementptr inbounds nuw %struct.ARKodeMemRec, ptr %8, i32 0, i32 72
  %10 = call i32 @arkAllocVec(ptr noundef %6, ptr noundef %7, ptr noundef %9)
  %11 = icmp ne i32 %10, 0
  br i1 %11, label %13, label %12

12:                                               ; preds = %2
  store i32 0, ptr %3, align 4
  br label %65

13:                                               ; preds = %2
  %14 = load ptr, ptr %4, align 8, !tbaa !11
  %15 = getelementptr inbounds nuw %struct.ARKodeMemRec, ptr %14, i32 0, i32 74
  %16 = load i32, ptr %15, align 8, !tbaa !55
  %17 = icmp ne i32 %16, 0
  br i1 %17, label %18, label %24

18:                                               ; preds = %13
  %19 = load ptr, ptr %4, align 8, !tbaa !11
  %20 = getelementptr inbounds nuw %struct.ARKodeMemRec, ptr %19, i32 0, i32 72
  %21 = load ptr, ptr %20, align 8, !tbaa !56
  %22 = load ptr, ptr %4, align 8, !tbaa !11
  %23 = getelementptr inbounds nuw %struct.ARKodeMemRec, ptr %22, i32 0, i32 73
  store ptr %21, ptr %23, align 8, !tbaa !57
  br label %24

24:                                               ; preds = %18, %13
  %25 = load ptr, ptr %4, align 8, !tbaa !11
  %26 = load ptr, ptr %5, align 8, !tbaa !7
  %27 = load ptr, ptr %4, align 8, !tbaa !11
  %28 = getelementptr inbounds nuw %struct.ARKodeMemRec, ptr %27, i32 0, i32 76
  %29 = call i32 @arkAllocVec(ptr noundef %25, ptr noundef %26, ptr noundef %28)
  %30 = icmp ne i32 %29, 0
  br i1 %30, label %32, label %31

31:                                               ; preds = %24
  store i32 0, ptr %3, align 4
  br label %65

32:                                               ; preds = %24
  %33 = load ptr, ptr %4, align 8, !tbaa !11
  %34 = load ptr, ptr %5, align 8, !tbaa !7
  %35 = load ptr, ptr %4, align 8, !tbaa !11
  %36 = getelementptr inbounds nuw %struct.ARKodeMemRec, ptr %35, i32 0, i32 79
  %37 = call i32 @arkAllocVec(ptr noundef %33, ptr noundef %34, ptr noundef %36)
  %38 = icmp ne i32 %37, 0
  br i1 %38, label %40, label %39

39:                                               ; preds = %32
  store i32 0, ptr %3, align 4
  br label %65

40:                                               ; preds = %32
  %41 = load ptr, ptr %4, align 8, !tbaa !11
  %42 = load ptr, ptr %5, align 8, !tbaa !7
  %43 = load ptr, ptr %4, align 8, !tbaa !11
  %44 = getelementptr inbounds nuw %struct.ARKodeMemRec, ptr %43, i32 0, i32 80
  %45 = call i32 @arkAllocVec(ptr noundef %41, ptr noundef %42, ptr noundef %44)
  %46 = icmp ne i32 %45, 0
  br i1 %46, label %48, label %47

47:                                               ; preds = %40
  store i32 0, ptr %3, align 4
  br label %65

48:                                               ; preds = %40
  %49 = load ptr, ptr %4, align 8, !tbaa !11
  %50 = load ptr, ptr %5, align 8, !tbaa !7
  %51 = load ptr, ptr %4, align 8, !tbaa !11
  %52 = getelementptr inbounds nuw %struct.ARKodeMemRec, ptr %51, i32 0, i32 81
  %53 = call i32 @arkAllocVec(ptr noundef %49, ptr noundef %50, ptr noundef %52)
  %54 = icmp ne i32 %53, 0
  br i1 %54, label %56, label %55

55:                                               ; preds = %48
  store i32 0, ptr %3, align 4
  br label %65

56:                                               ; preds = %48
  %57 = load ptr, ptr %4, align 8, !tbaa !11
  %58 = load ptr, ptr %5, align 8, !tbaa !7
  %59 = load ptr, ptr %4, align 8, !tbaa !11
  %60 = getelementptr inbounds nuw %struct.ARKodeMemRec, ptr %59, i32 0, i32 82
  %61 = call i32 @arkAllocVec(ptr noundef %57, ptr noundef %58, ptr noundef %60)
  %62 = icmp ne i32 %61, 0
  br i1 %62, label %64, label %63

63:                                               ; preds = %56
  store i32 0, ptr %3, align 4
  br label %65

64:                                               ; preds = %56
  store i32 1, ptr %3, align 4
  br label %65

65:                                               ; preds = %64, %63, %55, %47, %39, %31, %12
  %66 = load i32, ptr %3, align 4
  ret i32 %66
}