; Function Attrs: nounwind uwtable
define range(i32 0, 2) i32 @arkAllocVectors(ptr noundef %0, ptr noundef %1) local_unnamed_addr #0 {
  %3 = getelementptr inbounds nuw i8, ptr %0, i64 560
  %4 = load ptr, ptr %3, align 8, !tbaa !52
  %5 = icmp eq ptr %4, null
  br i1 %5, label %6, label %20

6:                                                ; preds = %2
  %7 = tail call ptr @N_VClone(ptr noundef %1) #16
  store ptr %7, ptr %3, align 8, !tbaa !52
  %8 = icmp eq ptr %7, null
  br i1 %8, label %arkAllocVec.exit, label %9

9:                                                ; preds = %6
  %10 = getelementptr inbounds nuw i8, ptr %0, i64 856
  %11 = load i64, ptr %10, align 8, !tbaa !31
  %12 = getelementptr inbounds nuw i8, ptr %0, i64 872
  %13 = load i64, ptr %12, align 8, !tbaa !53
  %14 = add nsw i64 %13, %11
  store i64 %14, ptr %12, align 8, !tbaa !53
  %15 = getelementptr inbounds nuw i8, ptr %0, i64 864
  %16 = load i64, ptr %15, align 8, !tbaa !32
  %17 = getelementptr inbounds nuw i8, ptr %0, i64 880
  %18 = load i64, ptr %17, align 8, !tbaa !54
  %19 = add nsw i64 %18, %16
  store i64 %19, ptr %17, align 8, !tbaa !54
  br label %20

arkAllocVec.exit:                                 ; preds = %6
  tail call void @arkFreeVectors(ptr noundef nonnull %0)
  br label %arkAllocVec.exit36.thread

20:                                               ; preds = %9, %2
  %21 = phi ptr [ %7, %9 ], [ %4, %2 ]
  %22 = getelementptr inbounds nuw i8, ptr %0, i64 576
  %23 = load i32, ptr %22, align 8, !tbaa !55
  %.not21 = icmp eq i32 %23, 0
  br i1 %.not21, label %26, label %24

24:                                               ; preds = %20
  %25 = getelementptr inbounds nuw i8, ptr %0, i64 568
  store ptr %21, ptr %25, align 8, !tbaa !57
  br label %26

26:                                               ; preds = %24, %20
  %27 = getelementptr inbounds nuw i8, ptr %0, i64 592
  %28 = load ptr, ptr %27, align 8, !tbaa !52
  %29 = icmp eq ptr %28, null
  br i1 %29, label %30, label %44

30:                                               ; preds = %26
  %31 = tail call ptr @N_VClone(ptr noundef %1) #16
  store ptr %31, ptr %27, align 8, !tbaa !52
  %32 = icmp eq ptr %31, null
  br i1 %32, label %arkAllocVec.exit28, label %33

33:                                               ; preds = %30
  %34 = getelementptr inbounds nuw i8, ptr %0, i64 856
  %35 = load i64, ptr %34, align 8, !tbaa !31
  %36 = getelementptr inbounds nuw i8, ptr %0, i64 872
  %37 = load i64, ptr %36, align 8, !tbaa !53
  %38 = add nsw i64 %37, %35
  store i64 %38, ptr %36, align 8, !tbaa !53
  %39 = getelementptr inbounds nuw i8, ptr %0, i64 864
  %40 = load i64, ptr %39, align 8, !tbaa !32
  %41 = getelementptr inbounds nuw i8, ptr %0, i64 880
  %42 = load i64, ptr %41, align 8, !tbaa !54
  %43 = add nsw i64 %42, %40
  store i64 %43, ptr %41, align 8, !tbaa !54
  br label %44

arkAllocVec.exit28:                               ; preds = %30
  tail call void @arkFreeVectors(ptr noundef nonnull %0)
  br label %arkAllocVec.exit36.thread

44:                                               ; preds = %33, %26
  %45 = getelementptr inbounds nuw i8, ptr %0, i64 616
  %46 = load ptr, ptr %45, align 8, !tbaa !52
  %47 = icmp eq ptr %46, null
  br i1 %47, label %48, label %62

48:                                               ; preds = %44
  %49 = tail call ptr @N_VClone(ptr noundef %1) #16
  store ptr %49, ptr %45, align 8, !tbaa !52
  %50 = icmp eq ptr %49, null
  br i1 %50, label %arkAllocVec.exit30, label %51

51:                                               ; preds = %48
  %52 = getelementptr inbounds nuw i8, ptr %0, i64 856
  %53 = load i64, ptr %52, align 8, !tbaa !31
  %54 = getelementptr inbounds nuw i8, ptr %0, i64 872
  %55 = load i64, ptr %54, align 8, !tbaa !53
  %56 = add nsw i64 %55, %53
  store i64 %56, ptr %54, align 8, !tbaa !53
  %57 = getelementptr inbounds nuw i8, ptr %0, i64 864
  %58 = load i64, ptr %57, align 8, !tbaa !32
  %59 = getelementptr inbounds nuw i8, ptr %0, i64 880
  %60 = load i64, ptr %59, align 8, !tbaa !54
  %61 = add nsw i64 %60, %58
  store i64 %61, ptr %59, align 8, !tbaa !54
  br label %62

arkAllocVec.exit30:                               ; preds = %48
  tail call void @arkFreeVectors(ptr noundef nonnull %0)
  br label %arkAllocVec.exit36.thread

62:                                               ; preds = %51, %44
  %63 = getelementptr inbounds nuw i8, ptr %0, i64 624
  %64 = load ptr, ptr %63, align 8, !tbaa !52
  %65 = icmp eq ptr %64, null
  br i1 %65, label %66, label %80

66:                                               ; preds = %62
  %67 = tail call ptr @N_VClone(ptr noundef %1) #16
  store ptr %67, ptr %63, align 8, !tbaa !52
  %68 = icmp eq ptr %67, null
  br i1 %68, label %arkAllocVec.exit32, label %69

69:                                               ; preds = %66
  %70 = getelementptr inbounds nuw i8, ptr %0, i64 856
  %71 = load i64, ptr %70, align 8, !tbaa !31
  %72 = getelementptr inbounds nuw i8, ptr %0, i64 872
  %73 = load i64, ptr %72, align 8, !tbaa !53
  %74 = add nsw i64 %73, %71
  store i64 %74, ptr %72, align 8, !tbaa !53
  %75 = getelementptr inbounds nuw i8, ptr %0, i64 864
  %76 = load i64, ptr %75, align 8, !tbaa !32
  %77 = getelementptr inbounds nuw i8, ptr %0, i64 880
  %78 = load i64, ptr %77, align 8, !tbaa !54
  %79 = add nsw i64 %78, %76
  store i64 %79, ptr %77, align 8, !tbaa !54
  br label %80

arkAllocVec.exit32:                               ; preds = %66
  tail call void @arkFreeVectors(ptr noundef nonnull %0)
  br label %arkAllocVec.exit36.thread

80:                                               ; preds = %69, %62
  %81 = getelementptr inbounds nuw i8, ptr %0, i64 632
  %82 = load ptr, ptr %81, align 8, !tbaa !52
  %83 = icmp eq ptr %82, null
  br i1 %83, label %84, label %98

84:                                               ; preds = %80
  %85 = tail call ptr @N_VClone(ptr noundef %1) #16
  store ptr %85, ptr %81, align 8, !tbaa !52
  %86 = icmp eq ptr %85, null
  br i1 %86, label %arkAllocVec.exit34, label %87

87:                                               ; preds = %84
  %88 = getelementptr inbounds nuw i8, ptr %0, i64 856
  %89 = load i64, ptr %88, align 8, !tbaa !31
  %90 = getelementptr inbounds nuw i8, ptr %0, i64 872
  %91 = load i64, ptr %90, align 8, !tbaa !53
  %92 = add nsw i64 %91, %89
  store i64 %92, ptr %90, align 8, !tbaa !53
  %93 = getelementptr inbounds nuw i8, ptr %0, i64 864
  %94 = load i64, ptr %93, align 8, !tbaa !32
  %95 = getelementptr inbounds nuw i8, ptr %0, i64 880
  %96 = load i64, ptr %95, align 8, !tbaa !54
  %97 = add nsw i64 %96, %94
  store i64 %97, ptr %95, align 8, !tbaa !54
  br label %98

arkAllocVec.exit34:                               ; preds = %84
  tail call void @arkFreeVectors(ptr noundef nonnull %0)
  br label %arkAllocVec.exit36.thread

98:                                               ; preds = %87, %80
  %99 = getelementptr inbounds nuw i8, ptr %0, i64 640
  %100 = load ptr, ptr %99, align 8, !tbaa !52
  %101 = icmp eq ptr %100, null
  br i1 %101, label %102, label %arkAllocVec.exit36.thread

102:                                              ; preds = %98
  %103 = tail call ptr @N_VClone(ptr noundef %1) #16
  store ptr %103, ptr %99, align 8, !tbaa !52
  %104 = icmp eq ptr %103, null
  br i1 %104, label %116, label %105

105:                                              ; preds = %102
  %106 = getelementptr inbounds nuw i8, ptr %0, i64 856
  %107 = load i64, ptr %106, align 8, !tbaa !31
  %108 = getelementptr inbounds nuw i8, ptr %0, i64 872
  %109 = load i64, ptr %108, align 8, !tbaa !53
  %110 = add nsw i64 %109, %107
  store i64 %110, ptr %108, align 8, !tbaa !53
  %111 = getelementptr inbounds nuw i8, ptr %0, i64 864
  %112 = load i64, ptr %111, align 8, !tbaa !32
  %113 = getelementptr inbounds nuw i8, ptr %0, i64 880
  %114 = load i64, ptr %113, align 8, !tbaa !54
  %115 = add nsw i64 %114, %112
  store i64 %115, ptr %113, align 8, !tbaa !54
  br label %arkAllocVec.exit36.thread

116:                                              ; preds = %102
  tail call void @arkFreeVectors(ptr noundef nonnull %0)
  br label %arkAllocVec.exit36.thread

arkAllocVec.exit36.thread:                        ; preds = %98, %105, %116, %arkAllocVec.exit34, %arkAllocVec.exit32, %arkAllocVec.exit30, %arkAllocVec.exit28, %arkAllocVec.exit
  %.0 = phi i32 [ 0, %arkAllocVec.exit ], [ 0, %arkAllocVec.exit28 ], [ 0, %arkAllocVec.exit30 ], [ 0, %arkAllocVec.exit32 ], [ 0, %arkAllocVec.exit34 ], [ 0, %116 ], [ 1, %105 ], [ 1, %98 ]
  ret i32 %.0
}